target datalayout = "e-m:e-p270:32:32-p271:32:32-p272:64:64-i64:64-i128:128-f80:128-n8:16:32:64-S128"
target triple = "x86_64-pc-linux-gnu"

%struct.Ivy_Obj_t_ = type { i32, i32, i32, i32, ptr, ptr, ptr, ptr, ptr, ptr, ptr, ptr }
%struct.Ivy_FraigList_t_ = type { ptr, ptr, i32 }

; Function Attrs: inlinehint nounwind uwtable
define internal void @Ivy_ObjSetEquivListNext(ptr noundef %0, ptr noundef %1) #4 {
  %3 = alloca ptr, align 8
  %4 = alloca ptr, align 8
  store ptr %0, ptr %3, align 8, !tbaa !72
  store ptr %1, ptr %4, align 8, !tbaa !72
  %5 = load ptr, ptr %4, align 8, !tbaa !72
  %6 = load ptr, ptr %3, align 8, !tbaa !72
  %7 = getelementptr inbounds nuw %struct.Ivy_Obj_t_, ptr %6, i32 0, i32 9
  store ptr %5, ptr %7, align 8, !tbaa !125
  ret void
}

; Function Attrs: inlinehint nounwind uwtable
define internal ptr @Ivy_ObjEquivListNext(ptr noundef %0) #4 {
  %2 = alloca ptr, align 8
  store ptr %0, ptr %2, align 8, !tbaa !72
  %3 = load ptr, ptr %2, align 8, !tbaa !72
  %4 = getelementptr inbounds nuw %struct.Ivy_Obj_t_, ptr %3, i32 0, i32 9
  %5 = load ptr, ptr %4, align 8, !tbaa !125
  ret ptr %5
}

; Function Attrs: inlinehint nounwind uwtable
define internal void @Ivy_ObjSetEquivListPrev(ptr noundef %0, ptr noundef %1) #4 {
  %3 = alloca ptr, align 8
  %4 = alloca ptr, align 8
  store ptr %0, ptr %3, align 8, !tbaa !72
  store ptr %1, ptr %4, align 8, !tbaa !72
  %5 = load ptr, ptr %4, align 8, !tbaa !72
  %6 = load ptr, ptr %3, align 8, !tbaa !72
  %7 = getelementptr inbounds nuw %struct.Ivy_Obj_t_, ptr %6, i32 0, i32 10
  store ptr %5, ptr %7, align 8, !tbaa !124
  ret void
}

; Function Attrs: nounwind uwtable
define void @Ivy_FraigInsertClass(ptr noundef %0, ptr noundef %1, ptr noundef %2) #0 {
  %4 = alloca ptr, align 8
  %5 = alloca ptr, align 8
  %6 = alloca ptr, align 8
  store ptr %0, ptr %4, align 8, !tbaa !168
  store ptr %1, ptr %5, align 8, !tbaa !72
  store ptr %2, ptr %6, align 8, !tbaa !72
  %7 = load ptr, ptr %6, align 8, !tbaa !72
  %8 = load ptr, ptr %5, align 8, !tbaa !72
  call void @Ivy_ObjSetEquivListPrev(ptr noundef %7, ptr noundef %8)
  %9 = load ptr, ptr %6, align 8, !tbaa !72
  %10 = load ptr, ptr %5, align 8, !tbaa !72
  %11 = call ptr @Ivy_ObjEquivListNext(ptr noundef %10)
  call void @Ivy_ObjSetEquivListNext(ptr noundef %9, ptr noundef %11)
  %12 = load ptr, ptr %5, align 8, !tbaa !72
  %13 = call ptr @Ivy_ObjEquivListNext(ptr noundef %12)
  %14 = icmp ne ptr %13, null
  br i1 %14, label %15, label %19

15:                                               ; preds = %3
  %16 = load ptr, ptr %5, align 8, !tbaa !72
  %17 = call ptr @Ivy_ObjEquivListNext(ptr noundef %16)
  %18 = load ptr, ptr %6, align 8, !tbaa !72
  call void @Ivy_ObjSetEquivListPrev(ptr noundef %17, ptr noundef %18)
  br label %19

19:                                               ; preds = %15, %3
  %20 = load ptr, ptr %5, align 8, !tbaa !72
  %21 = load ptr, ptr %6, align 8, !tbaa !72
  call void @Ivy_ObjSetEquivListNext(ptr noundef %20, ptr noundef %21)
  %22 = load ptr, ptr %4, align 8, !tbaa !168
  %23 = getelementptr inbounds nuw %struct.Ivy_FraigList_t_, ptr %22, i32 0, i32 1
  %24 = load ptr, ptr %23, align 8, !tbaa !171
  %25 = load ptr, ptr %5, align 8, !tbaa !72
  %26 = icmp eq ptr %24, %25
  br i1 %26, label %27, label %31

27:                                               ; preds = %19
  %28 = load ptr, ptr %6, align 8, !tbaa !72
  %29 = load ptr, ptr %4, align 8, !tbaa !168
  %30 = getelementptr inbounds nuw %struct.Ivy_FraigList_t_, ptr %29, i32 0, i32 1
  store ptr %28, ptr %30, align 8, !tbaa !171
  br label %31

31:                                               ; preds = %27, %19
  %32 = load ptr, ptr %4, align 8, !tbaa !168
  %33 = getelementptr inbounds nuw %struct.Ivy_FraigList_t_, ptr %32, i32 0, i32 2
  %34 = load i32, ptr %33, align 8, !tbaa !172
  %35 = add nsw i32 %34, 1
  store i32 %35, ptr %33, align 8, !tbaa !172
  ret void
}