; Function Attrs: mustprogress nofree norecurse nosync nounwind willreturn memory(write, argmem: readwrite, inaccessiblemem: none) uwtable
define void @Ivy_FraigInsertClass(ptr noundef captures(none) %0, ptr noundef %1, ptr noundef initializes((56, 72)) %2) local_unnamed_addr #12 {
  %4 = getelementptr inbounds nuw i8, ptr %2, i64 64
  store ptr %1, ptr %4, align 8, !tbaa !183
  %5 = getelementptr i8, ptr %1, i64 56
  %.val = load ptr, ptr %5, align 8, !tbaa !182
  %6 = getelementptr inbounds nuw i8, ptr %2, i64 56
  store ptr %.val, ptr %6, align 8, !tbaa !182
  %.not = icmp eq ptr %.val, null
  br i1 %.not, label %9, label %7

7:                                                ; preds = %3
  %8 = getelementptr inbounds nuw i8, ptr %.val, i64 64
  store ptr %2, ptr %8, align 8, !tbaa !183
  br label %9

9:                                                ; preds = %7, %3
  store ptr %2, ptr %5, align 8, !tbaa !182
  %10 = getelementptr inbounds nuw i8, ptr %0, i64 8
  %11 = load ptr, ptr %10, align 8, !tbaa !181
  %12 = icmp eq ptr %11, %1
  br i1 %12, label %13, label %14

13:                                               ; preds = %9
  store ptr %2, ptr %10, align 8, !tbaa !181
  br label %14

14:                                               ; preds = %13, %9
  %15 = getelementptr inbounds nuw i8, ptr %0, i64 16
  %16 = load i32, ptr %15, align 8, !tbaa !184
  %17 = add nsw i32 %16, 1
  store i32 %17, ptr %15, align 8, !tbaa !184
  ret void
}